; Function Attrs: mustprogress uwtable
define dso_local void @_ZNK7AstNode15dumpTreeAndNextERSoRKNSt7__cxx1112basic_stringIcSt11char_traitsIcESaIcEEEi(ptr noundef nonnull align 8 dereferenceable(152) %0, ptr noundef nonnull align 8 dereferenceable(8) %1, ptr noundef nonnull align 8 dereferenceable(32) %2, i32 noundef %3) local_unnamed_addr #4 align 2 {
  br label %5

5:                                                ; preds = %4, %5
  %.06 = phi ptr [ %0, %4 ], [ %7, %5 ]
  tail call void @_ZNK7AstNode8dumpTreeERSoRKNSt7__cxx1112basic_stringIcSt11char_traitsIcESaIcEEEi(ptr noundef nonnull align 8 dereferenceable(152) %.06, ptr noundef nonnull align 8 dereferenceable(8) %1, ptr noundef nonnull align 8 dereferenceable(32) %2, i32 noundef %3)
  %6 = getelementptr inbounds i8, ptr %.06, i64 8
  %7 = load ptr, ptr %6, align 8
  %.not = icmp eq ptr %7, null
  br i1 %.not, label %8, label %5, !llvm.loop !83

8:                                                ; preds = %5
  ret void
}